target datalayout = "e-m:e-p270:32:32-p271:32:32-p272:64:64-i64:64-i128:128-f80:128-n8:16:32:64-S128"
target triple = "x86_64-pc-linux-gnu"

%"class.glslang::TOutputTraverser" = type <{ %"class.glslang::TIntermTraverser", ptr, i32, [4 x i8] }>
%"class.glslang::TIntermTraverser" = type { ptr, i8, i8, i8, i8, i32, i32, %"class.glslang::TVector" }
%"class.glslang::TVector" = type { %"class.std::vector" }
%"class.std::vector" = type { %"struct.std::_Vector_base" }
%"struct.std::_Vector_base" = type { %"struct.std::_Vector_base<TIntermNode *, glslang::pool_allocator<TIntermNode *>>::_Vector_impl" }
%"struct.std::_Vector_base<TIntermNode *, glslang::pool_allocator<TIntermNode *>>::_Vector_impl" = type { %"class.glslang::pool_allocator", %"struct.std::_Vector_base<TIntermNode *, glslang::pool_allocator<TIntermNode *>>::_Vector_impl_data" }
%"class.glslang::pool_allocator" = type { ptr }
%"struct.std::_Vector_base<TIntermNode *, glslang::pool_allocator<TIntermNode *>>::_Vector_impl_data" = type { ptr, ptr, ptr }
%class.TInfoSink = type { %"class.glslang::TInfoSinkBase", %"class.glslang::TInfoSinkBase" }
%"class.glslang::TInfoSinkBase" = type { %"class.std::__cxx11::basic_string", i32, ptr }
%"class.std::__cxx11::basic_string" = type { %"struct.std::__cxx11::basic_string<char>::_Alloc_hider", i64, %union.anon }
%"struct.std::__cxx11::basic_string<char>::_Alloc_hider" = type { ptr }
%union.anon = type { i64, [8 x i8] }
%"struct.glslang::TSourceLoc" = type { ptr, i32, i32, i32 }
%class.TIntermNode = type { ptr, %"struct.glslang::TSourceLoc" }
%"class.glslang::TIntermBranch" = type { %class.TIntermNode, i32, ptr }

@.str.54 = private unnamed_addr constant [2 x i8] c"\0A\00", align 1
@.str.785 = private unnamed_addr constant [13 x i8] c"Branch: Kill\00", align 1
@.str.786 = private unnamed_addr constant [28 x i8] c"Branch: TerminateInvocation\00", align 1
@.str.787 = private unnamed_addr constant [30 x i8] c"Branch: IgnoreIntersectionKHR\00", align 1
@.str.788 = private unnamed_addr constant [24 x i8] c"Branch: TerminateRayKHR\00", align 1
@.str.789 = private unnamed_addr constant [14 x i8] c"Branch: Break\00", align 1
@.str.790 = private unnamed_addr constant [17 x i8] c"Branch: Continue\00", align 1
@.str.791 = private unnamed_addr constant [15 x i8] c"Branch: Return\00", align 1
@.str.792 = private unnamed_addr constant [7 x i8] c"case: \00", align 1
@.str.793 = private unnamed_addr constant [7 x i8] c"Demote\00", align 1
@.str.794 = private unnamed_addr constant [10 x i8] c"default: \00", align 1
@.str.795 = private unnamed_addr constant [23 x i8] c"Branch: Unknown Branch\00", align 1
@.str.796 = private unnamed_addr constant [18 x i8] c" with expression\0A\00", align 1

; Function Attrs: mustprogress nounwind uwtable
define linkonce_odr noundef ptr @_ZNK7glslang13TIntermBranch13getExpressionEv(ptr noundef nonnull align 8 dereferenceable(48) %0) #0 comdat align 2 {
  %2 = alloca ptr, align 8
  store ptr %0, ptr %2, align 8
  %3 = load ptr, ptr %2, align 8
  %4 = getelementptr inbounds %"class.glslang::TIntermBranch", ptr %3, i32 0, i32 2
  %5 = load ptr, ptr %4, align 8
  ret ptr %5
}

; Function Attrs: mustprogress nounwind uwtable
define linkonce_odr noundef nonnull align 8 dereferenceable(48) ptr @_ZN7glslang13TInfoSinkBaselsEPKc(ptr noundef nonnull align 8 dereferenceable(48) %0, ptr noundef %1) #0 comdat align 2 {
  %3 = alloca ptr, align 8
  %4 = alloca ptr, align 8
  store ptr %0, ptr %3, align 8
  store ptr %1, ptr %4, align 8
  %5 = load ptr, ptr %3, align 8
  %6 = load ptr, ptr %4, align 8
  call void @_ZN7glslang13TInfoSinkBase6appendEPKc(ptr noundef nonnull align 8 dereferenceable(48) %5, ptr noundef %6)
  ret ptr %5
}

; Function Attrs: mustprogress nounwind uwtable
define linkonce_odr noundef i32 @_ZNK7glslang13TIntermBranch9getFlowOpEv(ptr noundef nonnull align 8 dereferenceable(48) %0) #0 comdat align 2 {
  %2 = alloca ptr, align 8
  store ptr %0, ptr %2, align 8
  %3 = load ptr, ptr %2, align 8
  %4 = getelementptr inbounds %"class.glslang::TIntermBranch", ptr %3, i32 0, i32 1
  %5 = load i32, ptr %4, align 8
  ret i32 %5
}

; Function Attrs: mustprogress nounwind uwtable
define noundef zeroext i1 @_ZN7glslang16TOutputTraverser11visitBranchENS_6TVisitEPNS_13TIntermBranchE(ptr noundef nonnull align 8 dereferenceable(68) %0, i32 noundef %1, ptr noundef %2) unnamed_addr #0 align 2 {
  %4 = alloca ptr, align 8
  %5 = alloca i32, align 4
  %6 = alloca ptr, align 8
  %7 = alloca ptr, align 8
  store ptr %0, ptr %4, align 8
  store i32 %1, ptr %5, align 4
  store ptr %2, ptr %6, align 8
  %8 = load ptr, ptr %4, align 8
  %9 = getelementptr inbounds %"class.glslang::TOutputTraverser", ptr %8, i32 0, i32 1
  %10 = load ptr, ptr %9, align 8
  store ptr %10, ptr %7, align 8
  %11 = load ptr, ptr %7, align 8
  %12 = load ptr, ptr %6, align 8
  %13 = getelementptr inbounds %"class.glslang::TIntermTraverser", ptr %8, i32 0, i32 5
  %14 = load i32, ptr %13, align 4
  call void @_ZN7glslangL14OutputTreeTextER9TInfoSinkPK11TIntermNodei(ptr noundef nonnull align 8 dereferenceable(96) %11, ptr noundef %12, i32 noundef %14)
  %15 = load ptr, ptr %6, align 8
  %16 = call noundef i32 @_ZNK7glslang13TIntermBranch9getFlowOpEv(ptr noundef nonnull align 8 dereferenceable(48) %15)
  switch i32 %16, label %57 [
    i32 464, label %17
    i32 465, label %21
    i32 468, label %25
    i32 467, label %29
    i32 470, label %33
    i32 471, label %37
    i32 469, label %41
    i32 472, label %45
    i32 466, label %49
    i32 473, label %53
  ]

17:                                               ; preds = %3
  %18 = load ptr, ptr %7, align 8
  %19 = getelementptr inbounds %class.TInfoSink, ptr %18, i32 0, i32 1
  %20 = call noundef nonnull align 8 dereferenceable(48) ptr @_ZN7glslang13TInfoSinkBaselsEPKc(ptr noundef nonnull align 8 dereferenceable(48) %19, ptr noundef @.str.785)
  br label %61

21:                                               ; preds = %3
  %22 = load ptr, ptr %7, align 8
  %23 = getelementptr inbounds %class.TInfoSink, ptr %22, i32 0, i32 1
  %24 = call noundef nonnull align 8 dereferenceable(48) ptr @_ZN7glslang13TInfoSinkBaselsEPKc(ptr noundef nonnull align 8 dereferenceable(48) %23, ptr noundef @.str.786)
  br label %61

25:                                               ; preds = %3
  %26 = load ptr, ptr %7, align 8
  %27 = getelementptr inbounds %class.TInfoSink, ptr %26, i32 0, i32 1
  %28 = call noundef nonnull align 8 dereferenceable(48) ptr @_ZN7glslang13TInfoSinkBaselsEPKc(ptr noundef nonnull align 8 dereferenceable(48) %27, ptr noundef @.str.787)
  br label %61

29:                                               ; preds = %3
  %30 = load ptr, ptr %7, align 8
  %31 = getelementptr inbounds %class.TInfoSink, ptr %30, i32 0, i32 1
  %32 = call noundef nonnull align 8 dereferenceable(48) ptr @_ZN7glslang13TInfoSinkBaselsEPKc(ptr noundef nonnull align 8 dereferenceable(48) %31, ptr noundef @.str.788)
  br label %61

33:                                               ; preds = %3
  %34 = load ptr, ptr %7, align 8
  %35 = getelementptr inbounds %class.TInfoSink, ptr %34, i32 0, i32 1
  %36 = call noundef nonnull align 8 dereferenceable(48) ptr @_ZN7glslang13TInfoSinkBaselsEPKc(ptr noundef nonnull align 8 dereferenceable(48) %35, ptr noundef @.str.789)
  br label %61

37:                                               ; preds = %3
  %38 = load ptr, ptr %7, align 8
  %39 = getelementptr inbounds %class.TInfoSink, ptr %38, i32 0, i32 1
  %40 = call noundef nonnull align 8 dereferenceable(48) ptr @_ZN7glslang13TInfoSinkBaselsEPKc(ptr noundef nonnull align 8 dereferenceable(48) %39, ptr noundef @.str.790)
  br label %61

41:                                               ; preds = %3
  %42 = load ptr, ptr %7, align 8
  %43 = getelementptr inbounds %class.TInfoSink, ptr %42, i32 0, i32 1
  %44 = call noundef nonnull align 8 dereferenceable(48) ptr @_ZN7glslang13TInfoSinkBaselsEPKc(ptr noundef nonnull align 8 dereferenceable(48) %43, ptr noundef @.str.791)
  br label %61

45:                                               ; preds = %3
  %46 = load ptr, ptr %7, align 8
  %47 = getelementptr inbounds %class.TInfoSink, ptr %46, i32 0, i32 1
  %48 = call noundef nonnull align 8 dereferenceable(48) ptr @_ZN7glslang13TInfoSinkBaselsEPKc(ptr noundef nonnull align 8 dereferenceable(48) %47, ptr noundef @.str.792)
  br label %61

49:                                               ; preds = %3
  %50 = load ptr, ptr %7, align 8
  %51 = getelementptr inbounds %class.TInfoSink, ptr %50, i32 0, i32 1
  %52 = call noundef nonnull align 8 dereferenceable(48) ptr @_ZN7glslang13TInfoSinkBaselsEPKc(ptr noundef nonnull align 8 dereferenceable(48) %51, ptr noundef @.str.793)
  br label %61

53:                                               ; preds = %3
  %54 = load ptr, ptr %7, align 8
  %55 = getelementptr inbounds %class.TInfoSink, ptr %54, i32 0, i32 1
  %56 = call noundef nonnull align 8 dereferenceable(48) ptr @_ZN7glslang13TInfoSinkBaselsEPKc(ptr noundef nonnull align 8 dereferenceable(48) %55, ptr noundef @.str.794)
  br label %61

57:                                               ; preds = %3
  %58 = load ptr, ptr %7, align 8
  %59 = getelementptr inbounds %class.TInfoSink, ptr %58, i32 0, i32 1
  %60 = call noundef nonnull align 8 dereferenceable(48) ptr @_ZN7glslang13TInfoSinkBaselsEPKc(ptr noundef nonnull align 8 dereferenceable(48) %59, ptr noundef @.str.795)
  br label %61

61:                                               ; preds = %57, %53, %49, %45, %41, %37, %33, %29, %25, %21, %17
  %62 = load ptr, ptr %6, align 8
  %63 = call noundef ptr @_ZNK7glslang13TIntermBranch13getExpressionEv(ptr noundef nonnull align 8 dereferenceable(48) %62)
  %64 = icmp ne ptr %63, null
  br i1 %64, label %65, label %80

65:                                               ; preds = %61
  %66 = load ptr, ptr %7, align 8
  %67 = getelementptr inbounds %class.TInfoSink, ptr %66, i32 0, i32 1
  %68 = call noundef nonnull align 8 dereferenceable(48) ptr @_ZN7glslang13TInfoSinkBaselsEPKc(ptr noundef nonnull align 8 dereferenceable(48) %67, ptr noundef @.str.796)
  %69 = getelementptr inbounds %"class.glslang::TIntermTraverser", ptr %8, i32 0, i32 5
  %70 = load i32, ptr %69, align 4
  %71 = add nsw i32 %70, 1
  store i32 %71, ptr %69, align 4
  %72 = load ptr, ptr %6, align 8
  %73 = call noundef ptr @_ZNK7glslang13TIntermBranch13getExpressionEv(ptr noundef nonnull align 8 dereferenceable(48) %72)
  %74 = load ptr, ptr %73, align 8
  %75 = getelementptr inbounds ptr, ptr %74, i64 2
  %76 = load ptr, ptr %75, align 8
  call void %76(ptr noundef nonnull align 8 dereferenceable(32) %73, ptr noundef %8)
  %77 = getelementptr inbounds %"class.glslang::TIntermTraverser", ptr %8, i32 0, i32 5
  %78 = load i32, ptr %77, align 4
  %79 = add nsw i32 %78, -1
  store i32 %79, ptr %77, align 4
  br label %84

80:                                               ; preds = %61
  %81 = load ptr, ptr %7, align 8
  %82 = getelementptr inbounds %class.TInfoSink, ptr %81, i32 0, i32 1
  %83 = call noundef nonnull align 8 dereferenceable(48) ptr @_ZN7glslang13TInfoSinkBaselsEPKc(ptr noundef nonnull align 8 dereferenceable(48) %82, ptr noundef @.str.54)
  br label %84

84:                                               ; preds = %80, %65
  ret i1 false
}