; Function Attrs: mustprogress nounwind uwtable
define noundef zeroext i1 @_ZN7glslang16TOutputTraverser11visitBranchENS_6TVisitEPNS_13TIntermBranchE(ptr noundef nonnull align 8 dereferenceable(68) %0, i32 %1, ptr noundef %2) unnamed_addr #0 align 2 {
  %4 = getelementptr inbounds nuw i8, ptr %0, i64 56
  %5 = load ptr, ptr %4, align 8
  %6 = getelementptr inbounds nuw i8, ptr %0, i64 12
  %7 = load i32, ptr %6, align 4
  tail call fastcc void @_ZN7glslangL14OutputTreeTextER9TInfoSinkPK11TIntermNodei(ptr noundef nonnull align 8 dereferenceable(96) %5, ptr noundef %2, i32 noundef %7)
  %8 = getelementptr inbounds nuw i8, ptr %2, i64 32
  %9 = load i32, ptr %8, align 8
  %10 = getelementptr inbounds nuw i8, ptr %5, i64 48
  %switch.tableidx = add i32 %9, -464
  %11 = icmp ult i32 %switch.tableidx, 10
  br i1 %11, label %switch.lookup, label %13

switch.lookup:                                    ; preds = %3
  %12 = zext nneg i32 %switch.tableidx to i64
  %switch.gep = getelementptr inbounds nuw [10 x ptr], ptr @switch.table._ZN7glslang16TOutputTraverser11visitBranchENS_6TVisitEPNS_13TIntermBranchE, i64 0, i64 %12
  %switch.load = load ptr, ptr %switch.gep, align 8
  br label %13

13:                                               ; preds = %3, %switch.lookup
  %.str.795.sink = phi ptr [ %switch.load, %switch.lookup ], [ @.str.795, %3 ]
  tail call void @_ZN7glslang13TInfoSinkBase6appendEPKc(ptr noundef nonnull align 8 dereferenceable(48) %10, ptr noundef nonnull %.str.795.sink) #14
  %14 = getelementptr inbounds nuw i8, ptr %2, i64 40
  %15 = load ptr, ptr %14, align 8
  %.not = icmp eq ptr %15, null
  %16 = getelementptr inbounds nuw i8, ptr %5, i64 48
  br i1 %.not, label %26, label %17

17:                                               ; preds = %13
  tail call void @_ZN7glslang13TInfoSinkBase6appendEPKc(ptr noundef nonnull align 8 dereferenceable(48) %16, ptr noundef nonnull @.str.796) #14
  %18 = load i32, ptr %6, align 4
  %19 = add nsw i32 %18, 1
  store i32 %19, ptr %6, align 4
  %20 = load ptr, ptr %14, align 8
  %21 = load ptr, ptr %20, align 8
  %22 = getelementptr inbounds nuw i8, ptr %21, i64 16
  %23 = load ptr, ptr %22, align 8
  tail call void %23(ptr noundef nonnull align 8 dereferenceable(32) %20, ptr noundef nonnull %0) #14
  %24 = load i32, ptr %6, align 4
  %25 = add nsw i32 %24, -1
  store i32 %25, ptr %6, align 4
  br label %27

26:                                               ; preds = %13
  tail call void @_ZN7glslang13TInfoSinkBase6appendEPKc(ptr noundef nonnull align 8 dereferenceable(48) %16, ptr noundef nonnull @.str.54) #14
  br label %27

27:                                               ; preds = %26, %17
  ret i1 false
}